target datalayout = "e-m:e-p270:32:32-p271:32:32-p272:64:64-i64:64-i128:128-f80:128-n8:16:32:64-S128"
target triple = "x86_64-pc-linux-gnu"

@hf_gryphon_reserved = internal global i32 0, align 4
@hf_gryphon_blm_mode = internal global i32 0, align 4
@hf_gryphon_blm_mode_avg_period = internal global i32 0, align 4
@hf_gryphon_blm_mode_avg_frames = internal global i32 0, align 4
@ett_gryphon_blm_mode = internal global i32 0, align 4
@.str.1036 = private unnamed_addr constant [16 x i8] c"%d.%03d seconds\00", align 1

; Function Attrs: null_pointer_is_valid sspstrong uwtable
define internal i32 @blm_mode(ptr noundef %0, i32 noundef %1, ptr noundef %2) #0 {
  %4 = alloca ptr, align 8
  %5 = alloca i32, align 4
  %6 = alloca ptr, align 8
  %7 = alloca ptr, align 8
  %8 = alloca ptr, align 8
  %9 = alloca i32, align 4
  %10 = alloca i32, align 4
  store ptr %0, ptr %4, align 8
  store i32 %1, ptr %5, align 4
  store ptr %2, ptr %6, align 8
  call void @llvm.lifetime.start.p0(i64 8, ptr %7) #7
  call void @llvm.lifetime.start.p0(i64 8, ptr %8) #7
  call void @llvm.lifetime.start.p0(i64 4, ptr %9) #7
  call void @llvm.lifetime.start.p0(i64 4, ptr %10) #7
  %11 = load ptr, ptr %6, align 8
  %12 = load i32, ptr @hf_gryphon_blm_mode, align 4
  %13 = load ptr, ptr %4, align 8
  %14 = load i32, ptr %5, align 4
  %15 = call ptr @proto_tree_add_item_ret_uint(ptr noundef %11, i32 noundef %12, ptr noundef %13, i32 noundef %14, i32 noundef 4, i32 noundef 0, ptr noundef %9)
  store ptr %15, ptr %7, align 8
  %16 = load ptr, ptr %7, align 8
  %17 = load i32, ptr @ett_gryphon_blm_mode, align 4
  %18 = call ptr @proto_item_add_subtree(ptr noundef %16, i32 noundef %17)
  store ptr %18, ptr %8, align 8
  %19 = load i32, ptr %5, align 4
  %20 = add i32 %19, 4
  store i32 %20, ptr %5, align 4
  %21 = load i32, ptr %9, align 4
  switch i32 %21, label %42 [
    i32 1, label %22
    i32 2, label %36
  ]

22:                                               ; preds = %3
  %23 = load ptr, ptr %4, align 8
  %24 = load i32, ptr %5, align 4
  %25 = call i32 @tvb_get_ntohl(ptr noundef %23, i32 noundef %24)
  store i32 %25, ptr %10, align 4
  %26 = load ptr, ptr %8, align 8
  %27 = load i32, ptr @hf_gryphon_blm_mode_avg_period, align 4
  %28 = load ptr, ptr %4, align 8
  %29 = load i32, ptr %5, align 4
  %30 = load i32, ptr %10, align 4
  %31 = load i32, ptr %10, align 4
  %32 = udiv i32 %31, 1000
  %33 = load i32, ptr %10, align 4
  %34 = urem i32 %33, 1000
  %35 = call ptr (ptr, i32, ptr, i32, i32, i32, ptr, ...) @proto_tree_add_uint_format_value(ptr noundef %26, i32 noundef %27, ptr noundef %28, i32 noundef %29, i32 noundef 4, i32 noundef %30, ptr noundef @.str.1036, i32 noundef %32, i32 noundef %34)
  br label %48

36:                                               ; preds = %3
  %37 = load ptr, ptr %8, align 8
  %38 = load i32, ptr @hf_gryphon_blm_mode_avg_frames, align 4
  %39 = load ptr, ptr %4, align 8
  %40 = load i32, ptr %5, align 4
  %41 = call ptr @proto_tree_add_item(ptr noundef %37, i32 noundef %38, ptr noundef %39, i32 noundef %40, i32 noundef 4, i32 noundef 0)
  br label %48

42:                                               ; preds = %3
  %43 = load ptr, ptr %6, align 8
  %44 = load i32, ptr @hf_gryphon_reserved, align 4
  %45 = load ptr, ptr %4, align 8
  %46 = load i32, ptr %5, align 4
  %47 = call ptr @proto_tree_add_item(ptr noundef %43, i32 noundef %44, ptr noundef %45, i32 noundef %46, i32 noundef 4, i32 noundef 0)
  br label %48

48:                                               ; preds = %42, %36, %22
  %49 = load i32, ptr %5, align 4
  %50 = add i32 %49, 4
  store i32 %50, ptr %5, align 4
  %51 = load i32, ptr %5, align 4
  call void @llvm.lifetime.end.p0(i64 4, ptr %10) #7
  call void @llvm.lifetime.end.p0(i64 4, ptr %9) #7
  call void @llvm.lifetime.end.p0(i64 8, ptr %8) #7
  call void @llvm.lifetime.end.p0(i64 8, ptr %7) #7
  ret i32 %51
}