; Function Attrs: null_pointer_is_valid sspstrong uwtable
define internal fastcc range(i32 20, 25) i32 @blm_mode(ptr noundef %0, i32 noundef range(i32 12, 17) %1, ptr noundef %2) unnamed_addr #0 {
  %4 = alloca i32, align 4
  call void @llvm.lifetime.start.p0(i64 4, ptr nonnull %4) #5
  %5 = load i32, ptr @hf_gryphon_blm_mode, align 4
  %6 = call ptr @proto_tree_add_item_ret_uint(ptr noundef %2, i32 noundef %5, ptr noundef %0, i32 noundef %1, i32 noundef 4, i32 noundef 0, ptr noundef nonnull %4)
  %7 = load i32, ptr @ett_gryphon_blm_mode, align 4
  %8 = call ptr @proto_item_add_subtree(ptr noundef %6, i32 noundef %7)
  %9 = add nuw nsw i32 %1, 4
  %10 = load i32, ptr %4, align 4
  switch i32 %10, label %20 [
    i32 1, label %11
    i32 2, label %17
  ]

11:                                               ; preds = %3
  %12 = call i32 @tvb_get_ntohl(ptr noundef %0, i32 noundef %9)
  %13 = load i32, ptr @hf_gryphon_blm_mode_avg_period, align 4
  %14 = udiv i32 %12, 1000
  %15 = urem i32 %12, 1000
  %16 = call ptr (ptr, i32, ptr, i32, i32, i32, ptr, ...) @proto_tree_add_uint_format_value(ptr noundef %8, i32 noundef %13, ptr noundef %0, i32 noundef %9, i32 noundef 4, i32 noundef %12, ptr noundef nonnull @.str.1036, i32 noundef %14, i32 noundef %15)
  br label %23

17:                                               ; preds = %3
  %18 = load i32, ptr @hf_gryphon_blm_mode_avg_frames, align 4
  %19 = call ptr @proto_tree_add_item(ptr noundef %8, i32 noundef %18, ptr noundef %0, i32 noundef %9, i32 noundef 4, i32 noundef 0)
  br label %23

20:                                               ; preds = %3
  %21 = load i32, ptr @hf_gryphon_reserved, align 4
  %22 = call ptr @proto_tree_add_item(ptr noundef %2, i32 noundef %21, ptr noundef %0, i32 noundef %9, i32 noundef 4, i32 noundef 0)
  br label %23

23:                                               ; preds = %20, %17, %11
  %24 = add nuw nsw i32 %1, 8
  call void @llvm.lifetime.end.p0(i64 4, ptr nonnull %4) #5
  ret i32 %24
}